target datalayout = "e-m:e-p270:32:32-p271:32:32-p272:64:64-i64:64-i128:128-f80:128-n8:16:32:64-S128"
target triple = "x86_64-pc-linux-gnu"

%struct.H5RS_str_t = type { ptr, ptr, i64, i64, i8, i32 }

@H5RS_init_g = global i8 0, align 1
@H5_libterm_g = external global i8, align 1
@.str = private unnamed_addr constant [98 x i8] c"generated/home/dtcxzyw/WorkSpace/Projects/compilers/llvm-opt-benchmark/bench/hdf5/hdf5/src/H5RS.c\00", align 1
@__func__.H5RS_create = private unnamed_addr constant [12 x i8] c"H5RS_create\00", align 1
@H5E_RS_g = external global i64, align 8
@H5E_CANTALLOC_g = external global i64, align 8
@.str.1 = private unnamed_addr constant [25 x i8] c"memory allocation failed\00", align 1
@H5E_CANTCOPY_g = external global i64, align 8
@.str.2 = private unnamed_addr constant [18 x i8] c"can't copy string\00", align 1
@H5_H5RS_str_t_reg_free_list = internal global { i8, [3 x i8], i32, i32, [4 x i8], ptr, i64, ptr } { i8 0, [3 x i8] zeroinitializer, i32 0, i32 0, [4 x i8] zeroinitializer, ptr @.str.5, i64 40, ptr null }, align 8
@__func__.H5RS__xstrdup = private unnamed_addr constant [14 x i8] c"H5RS__xstrdup\00", align 1
@H5_str_buf_blk_free_list = internal global { i8, [3 x i8], i32, i32, [4 x i8], i64, ptr, ptr } { i8 0, [3 x i8] zeroinitializer, i32 0, i32 0, [4 x i8] zeroinitializer, i64 0, ptr @.str.7, ptr null }, align 8

; Function Attrs: nounwind uwtable
define internal i32 @H5RS__xstrdup(ptr noundef %0, ptr noundef %1) #0 {
  %3 = alloca i32, align 4
  %4 = alloca ptr, align 8
  %5 = alloca ptr, align 8
  %6 = alloca i32, align 4
  %7 = alloca i8, align 1
  %8 = alloca i64, align 8
  %9 = alloca i32, align 4
  store ptr %0, ptr %4, align 8, !tbaa !8
  store ptr %1, ptr %5, align 8, !tbaa !3
  call void @llvm.lifetime.start.p0(i64 4, ptr %6) #8
  store i32 0, ptr %6, align 4, !tbaa !19
  call void @llvm.lifetime.start.p0(i64 1, ptr %7) #8
  store i8 0, ptr %7, align 1, !tbaa !10
  %10 = load i8, ptr @H5RS_init_g, align 1, !tbaa !10, !range !12, !noundef !13
  %11 = trunc i8 %10 to i1
  br i1 %11, label %16, label %12

12:                                               ; preds = %2
  %13 = load i8, ptr @H5_libterm_g, align 1, !tbaa !10, !range !12, !noundef !13
  %14 = trunc i8 %13 to i1
  %15 = xor i1 %14, true
  br label %16

16:                                               ; preds = %12, %2
  %17 = phi i1 [ true, %2 ], [ %15, %12 ]
  %18 = xor i1 %17, true
  %19 = xor i1 %18, true
  %20 = zext i1 %19 to i32
  %21 = sext i32 %20 to i64
  %22 = call i64 @llvm.expect.i64(i64 %21, i64 1)
  %23 = icmp ne i64 %22, 0
  br i1 %23, label %24, label %119

24:                                               ; preds = %16
  %25 = load ptr, ptr %5, align 8, !tbaa !3
  %26 = icmp ne ptr %25, null
  br i1 %26, label %27, label %97

27:                                               ; preds = %24
  call void @llvm.lifetime.start.p0(i64 8, ptr %8) #8
  %28 = load ptr, ptr %5, align 8, !tbaa !3
  %29 = call i64 @strlen(ptr noundef %28) #9
  store i64 %29, ptr %8, align 8, !tbaa !14
  %30 = load ptr, ptr %4, align 8, !tbaa !8
  %31 = getelementptr inbounds nuw %struct.H5RS_str_t, ptr %30, i32 0, i32 3
  store i64 256, ptr %31, align 8, !tbaa !20
  br label %32

32:                                               ; preds = %39, %27
  %33 = load i64, ptr %8, align 8, !tbaa !14
  %34 = add i64 %33, 1
  %35 = load ptr, ptr %4, align 8, !tbaa !8
  %36 = getelementptr inbounds nuw %struct.H5RS_str_t, ptr %35, i32 0, i32 3
  %37 = load i64, ptr %36, align 8, !tbaa !20
  %38 = icmp ugt i64 %34, %37
  br i1 %38, label %39, label %44

39:                                               ; preds = %32
  %40 = load ptr, ptr %4, align 8, !tbaa !8
  %41 = getelementptr inbounds nuw %struct.H5RS_str_t, ptr %40, i32 0, i32 3
  %42 = load i64, ptr %41, align 8, !tbaa !20
  %43 = mul i64 %42, 2
  store i64 %43, ptr %41, align 8, !tbaa !20
  br label %32, !llvm.loop !21

44:                                               ; preds = %32
  %45 = load ptr, ptr %4, align 8, !tbaa !8
  %46 = getelementptr inbounds nuw %struct.H5RS_str_t, ptr %45, i32 0, i32 3
  %47 = load i64, ptr %46, align 8, !tbaa !20
  %48 = call noalias ptr @H5FL_blk_malloc(ptr noundef @H5_str_buf_blk_free_list, i64 noundef %47)
  %49 = load ptr, ptr %4, align 8, !tbaa !8
  %50 = getelementptr inbounds nuw %struct.H5RS_str_t, ptr %49, i32 0, i32 0
  store ptr %48, ptr %50, align 8, !tbaa !23
  %51 = icmp eq ptr null, %48
  br i1 %51, label %52, label %71

52:                                               ; preds = %44
  br label %53

53:                                               ; preds = %52
  br label %54

54:                                               ; preds = %53
  br label %55

55:                                               ; preds = %54
  %56 = load i64, ptr @H5E_RS_g, align 8, !tbaa !14
  %57 = load i64, ptr @H5E_CANTALLOC_g, align 8, !tbaa !14
  %58 = call i32 (ptr, ptr, i32, i64, i64, ptr, ...) @H5E_printf_stack(ptr noundef @.str, ptr noundef @__func__.H5RS__xstrdup, i32 noundef 129, i64 noundef %56, i64 noundef %57, ptr noundef @.str.1)
  br label %59

59:                                               ; preds = %55
  br label %60

60:                                               ; preds = %59
  store i8 1, ptr %7, align 1, !tbaa !10
  %61 = load i8, ptr %7, align 1, !tbaa !10, !range !12, !noundef !13
  %62 = trunc i8 %61 to i1
  %63 = zext i1 %62 to i8
  store i8 %63, ptr %7, align 1, !tbaa !10
  br label %64

64:                                               ; preds = %60
  br label %65

65:                                               ; preds = %64
  br label %66

66:                                               ; preds = %65
  store i32 -1, ptr %6, align 4, !tbaa !19
  store i32 12, ptr %9, align 4
  br label %94

67:                                               ; No predecessors!
  br label %68

68:                                               ; preds = %67
  br label %69

69:                                               ; preds = %68
  br label %70

70:                                               ; preds = %69
  br label %71

71:                                               ; preds = %70, %44
  %72 = load i64, ptr %8, align 8, !tbaa !14
  %73 = icmp ne i64 %72, 0
  br i1 %73, label %74, label %80

74:                                               ; preds = %71
  %75 = load ptr, ptr %4, align 8, !tbaa !8
  %76 = getelementptr inbounds nuw %struct.H5RS_str_t, ptr %75, i32 0, i32 0
  %77 = load ptr, ptr %76, align 8, !tbaa !23
  %78 = load ptr, ptr %5, align 8, !tbaa !3
  %79 = load i64, ptr %8, align 8, !tbaa !14
  call void @llvm.memcpy.p0.p0.i64(ptr align 1 %77, ptr align 1 %78, i64 %79, i1 false)
  br label %80

80:                                               ; preds = %74, %71
  %81 = load ptr, ptr %4, align 8, !tbaa !8
  %82 = getelementptr inbounds nuw %struct.H5RS_str_t, ptr %81, i32 0, i32 0
  %83 = load ptr, ptr %82, align 8, !tbaa !23
  %84 = load i64, ptr %8, align 8, !tbaa !14
  %85 = getelementptr inbounds nuw i8, ptr %83, i64 %84
  %86 = load ptr, ptr %4, align 8, !tbaa !8
  %87 = getelementptr inbounds nuw %struct.H5RS_str_t, ptr %86, i32 0, i32 1
  store ptr %85, ptr %87, align 8, !tbaa !24
  %88 = load ptr, ptr %4, align 8, !tbaa !8
  %89 = getelementptr inbounds nuw %struct.H5RS_str_t, ptr %88, i32 0, i32 1
  %90 = load ptr, ptr %89, align 8, !tbaa !24
  store i8 0, ptr %90, align 1, !tbaa !25
  %91 = load i64, ptr %8, align 8, !tbaa !14
  %92 = load ptr, ptr %4, align 8, !tbaa !8
  %93 = getelementptr inbounds nuw %struct.H5RS_str_t, ptr %92, i32 0, i32 2
  store i64 %91, ptr %93, align 8, !tbaa !26
  store i32 0, ptr %9, align 4
  br label %94

94:                                               ; preds = %66, %80
  call void @llvm.lifetime.end.p0(i64 8, ptr %8) #8
  %95 = load i32, ptr %9, align 4
  switch i32 %95, label %121 [
    i32 0, label %96
    i32 12, label %118
  ]

96:                                               ; preds = %94
  br label %117

97:                                               ; preds = %24
  %98 = load ptr, ptr %4, align 8, !tbaa !8
  %99 = getelementptr inbounds nuw %struct.H5RS_str_t, ptr %98, i32 0, i32 0
  %100 = load ptr, ptr %99, align 8, !tbaa !23
  %101 = icmp ne ptr %100, null
  br i1 %101, label %102, label %115

102:                                              ; preds = %97
  %103 = load ptr, ptr %4, align 8, !tbaa !8
  %104 = getelementptr inbounds nuw %struct.H5RS_str_t, ptr %103, i32 0, i32 0
  %105 = load ptr, ptr %104, align 8, !tbaa !23
  %106 = call ptr @H5FL_blk_free(ptr noundef @H5_str_buf_blk_free_list, ptr noundef %105)
  %107 = load ptr, ptr %4, align 8, !tbaa !8
  %108 = getelementptr inbounds nuw %struct.H5RS_str_t, ptr %107, i32 0, i32 1
  store ptr null, ptr %108, align 8, !tbaa !24
  %109 = load ptr, ptr %4, align 8, !tbaa !8
  %110 = getelementptr inbounds nuw %struct.H5RS_str_t, ptr %109, i32 0, i32 0
  store ptr null, ptr %110, align 8, !tbaa !23
  %111 = load ptr, ptr %4, align 8, !tbaa !8
  %112 = getelementptr inbounds nuw %struct.H5RS_str_t, ptr %111, i32 0, i32 2
  store i64 0, ptr %112, align 8, !tbaa !26
  %113 = load ptr, ptr %4, align 8, !tbaa !8
  %114 = getelementptr inbounds nuw %struct.H5RS_str_t, ptr %113, i32 0, i32 3
  store i64 0, ptr %114, align 8, !tbaa !20
  br label %116

115:                                              ; preds = %97
  br label %116

116:                                              ; preds = %115, %102
  br label %117

117:                                              ; preds = %116, %96
  br label %118

118:                                              ; preds = %117, %94
  br label %119

119:                                              ; preds = %118, %16
  %120 = load i32, ptr %6, align 4, !tbaa !19
  store i32 %120, ptr %3, align 4
  store i32 1, ptr %9, align 4
  br label %121

121:                                              ; preds = %119, %94
  call void @llvm.lifetime.end.p0(i64 1, ptr %7) #8
  call void @llvm.lifetime.end.p0(i64 4, ptr %6) #8
  %122 = load i32, ptr %3, align 4
  ret i32 %122
}

; Function Attrs: nounwind uwtable
define ptr @H5RS_create(ptr noundef %0) #0 {
  %2 = alloca ptr, align 8
  %3 = alloca ptr, align 8
  %4 = alloca i8, align 1
  store ptr %0, ptr %2, align 8, !tbaa !3
  call void @llvm.lifetime.start.p0(i64 8, ptr %3) #8
  store ptr null, ptr %3, align 8, !tbaa !8
  call void @llvm.lifetime.start.p0(i64 1, ptr %4) #8
  store i8 0, ptr %4, align 1, !tbaa !10
  %5 = load i8, ptr @H5RS_init_g, align 1, !tbaa !10, !range !12, !noundef !13
  %6 = trunc i8 %5 to i1
  br i1 %6, label %11, label %7

7:                                                ; preds = %1
  %8 = load i8, ptr @H5_libterm_g, align 1, !tbaa !10, !range !12, !noundef !13
  %9 = trunc i8 %8 to i1
  %10 = xor i1 %9, true
  br label %11

11:                                               ; preds = %7, %1
  %12 = phi i1 [ false, %1 ], [ %10, %7 ]
  %13 = xor i1 %12, true
  %14 = xor i1 %13, true
  %15 = zext i1 %14 to i32
  %16 = sext i32 %15 to i64
  %17 = call i64 @llvm.expect.i64(i64 %16, i64 0)
  %18 = icmp ne i64 %17, 0
  br i1 %18, label %19, label %20

19:                                               ; preds = %11
  store i8 1, ptr @H5RS_init_g, align 1, !tbaa !10
  br label %20

20:                                               ; preds = %19, %11
  %21 = load i8, ptr @H5RS_init_g, align 1, !tbaa !10, !range !12, !noundef !13
  %22 = trunc i8 %21 to i1
  br i1 %22, label %27, label %23

23:                                               ; preds = %20
  %24 = load i8, ptr @H5_libterm_g, align 1, !tbaa !10, !range !12, !noundef !13
  %25 = trunc i8 %24 to i1
  %26 = xor i1 %25, true
  br label %27

27:                                               ; preds = %23, %20
  %28 = phi i1 [ true, %20 ], [ %26, %23 ]
  %29 = xor i1 %28, true
  %30 = xor i1 %29, true
  %31 = zext i1 %30 to i32
  %32 = sext i32 %31 to i64
  %33 = call i64 @llvm.expect.i64(i64 %32, i64 1)
  %34 = icmp ne i64 %33, 0
  br i1 %34, label %35, label %89

35:                                               ; preds = %27
  %36 = call noalias ptr @H5FL_reg_calloc(ptr noundef @H5_H5RS_str_t_reg_free_list)
  store ptr %36, ptr %3, align 8, !tbaa !8
  %37 = icmp eq ptr null, %36
  br i1 %37, label %38, label %57

38:                                               ; preds = %35
  br label %39

39:                                               ; preds = %38
  br label %40

40:                                               ; preds = %39
  br label %41

41:                                               ; preds = %40
  %42 = load i64, ptr @H5E_RS_g, align 8, !tbaa !14
  %43 = load i64, ptr @H5E_CANTALLOC_g, align 8, !tbaa !14
  %44 = call i32 (ptr, ptr, i32, i64, i64, ptr, ...) @H5E_printf_stack(ptr noundef @.str, ptr noundef @__func__.H5RS_create, i32 noundef 277, i64 noundef %42, i64 noundef %43, ptr noundef @.str.1)
  br label %45

45:                                               ; preds = %41
  br label %46

46:                                               ; preds = %45
  store i8 1, ptr %4, align 1, !tbaa !10
  %47 = load i8, ptr %4, align 1, !tbaa !10, !range !12, !noundef !13
  %48 = trunc i8 %47 to i1
  %49 = zext i1 %48 to i8
  store i8 %49, ptr %4, align 1, !tbaa !10
  br label %50

50:                                               ; preds = %46
  br label %51

51:                                               ; preds = %50
  br label %52

52:                                               ; preds = %51
  store ptr null, ptr %3, align 8, !tbaa !8
  br label %88

53:                                               ; No predecessors!
  br label %54

54:                                               ; preds = %53
  br label %55

55:                                               ; preds = %54
  br label %56

56:                                               ; preds = %55
  br label %57

57:                                               ; preds = %56, %35
  %58 = load ptr, ptr %2, align 8, !tbaa !3
  %59 = icmp ne ptr %58, null
  br i1 %59, label %60, label %85

60:                                               ; preds = %57
  %61 = load ptr, ptr %3, align 8, !tbaa !8
  %62 = load ptr, ptr %2, align 8, !tbaa !3
  %63 = call i32 @H5RS__xstrdup(ptr noundef %61, ptr noundef %62)
  %64 = icmp slt i32 %63, 0
  br i1 %64, label %65, label %84

65:                                               ; preds = %60
  br label %66

66:                                               ; preds = %65
  br label %67

67:                                               ; preds = %66
  br label %68

68:                                               ; preds = %67
  %69 = load i64, ptr @H5E_RS_g, align 8, !tbaa !14
  %70 = load i64, ptr @H5E_CANTCOPY_g, align 8, !tbaa !14
  %71 = call i32 (ptr, ptr, i32, i64, i64, ptr, ...) @H5E_printf_stack(ptr noundef @.str, ptr noundef @__func__.H5RS_create, i32 noundef 282, i64 noundef %69, i64 noundef %70, ptr noundef @.str.2)
  br label %72

72:                                               ; preds = %68
  br label %73

73:                                               ; preds = %72
  store i8 1, ptr %4, align 1, !tbaa !10
  %74 = load i8, ptr %4, align 1, !tbaa !10, !range !12, !noundef !13
  %75 = trunc i8 %74 to i1
  %76 = zext i1 %75 to i8
  store i8 %76, ptr %4, align 1, !tbaa !10
  br label %77

77:                                               ; preds = %73
  br label %78

78:                                               ; preds = %77
  br label %79

79:                                               ; preds = %78
  store ptr null, ptr %3, align 8, !tbaa !8
  br label %88

80:                                               ; No predecessors!
  br label %81

81:                                               ; preds = %80
  br label %82

82:                                               ; preds = %81
  br label %83

83:                                               ; preds = %82
  br label %84

84:                                               ; preds = %83, %60
  br label %85

85:                                               ; preds = %84, %57
  %86 = load ptr, ptr %3, align 8, !tbaa !8
  %87 = getelementptr inbounds nuw %struct.H5RS_str_t, ptr %86, i32 0, i32 5
  store i32 1, ptr %87, align 4, !tbaa !16
  br label %88

88:                                               ; preds = %85, %79, %52
  br label %89

89:                                               ; preds = %88, %27
  %90 = load ptr, ptr %3, align 8, !tbaa !8
  call void @llvm.lifetime.end.p0(i64 1, ptr %4) #8
  call void @llvm.lifetime.end.p0(i64 8, ptr %3) #8
  ret ptr %90
}