; Function Attrs: nounwind uwtable
define noalias ptr @H5RS_create(ptr noundef readonly captures(address_is_null) %0) local_unnamed_addr #0 {
  %2 = load i8, ptr @H5RS_init_g, align 1, !tbaa !3, !range !7, !noundef !8
  %3 = trunc nuw i8 %2 to i1
  %4 = load i8, ptr @H5_libterm_g, align 1, !range !7
  %5 = trunc nuw i8 %4 to i1
  %6 = select i1 %3, i1 true, i1 %5
  br i1 %6, label %7, label %.thread, !prof !9

.thread:                                          ; preds = %1
  store i8 1, ptr @H5RS_init_g, align 1, !tbaa !3
  br label %10

7:                                                ; preds = %1
  %8 = xor i1 %5, true
  %9 = select i1 %3, i1 true, i1 %8
  br i1 %9, label %10, label %49, !prof !10

10:                                               ; preds = %.thread, %7
  %11 = tail call noalias ptr @H5FL_reg_calloc(ptr noundef nonnull @H5_H5RS_str_t_reg_free_list) #11
  %12 = icmp eq ptr %11, null
  br i1 %12, label %13, label %17

13:                                               ; preds = %10
  %14 = load i64, ptr @H5E_RS_g, align 8, !tbaa !11
  %15 = load i64, ptr @H5E_CANTALLOC_g, align 8, !tbaa !11
  %16 = tail call i32 (ptr, ptr, i32, i64, i64, ptr, ...) @H5E_printf_stack(ptr noundef nonnull @.str, ptr noundef nonnull @__func__.H5RS_create, i32 noundef 277, i64 noundef %14, i64 noundef %15, ptr noundef nonnull @.str.1) #11
  br label %49

17:                                               ; preds = %10
  %.not = icmp eq ptr %0, null
  br i1 %.not, label %H5RS__xstrdup.exit.thread, label %18

18:                                               ; preds = %17
  %19 = load i8, ptr @H5RS_init_g, align 1, !tbaa !3, !range !7, !noundef !8
  %20 = trunc nuw i8 %19 to i1
  %21 = load i8, ptr @H5_libterm_g, align 1, !range !7
  %22 = trunc nuw i8 %21 to i1
  %23 = xor i1 %22, true
  %24 = select i1 %20, i1 true, i1 %23
  br i1 %24, label %25, label %H5RS__xstrdup.exit.thread, !prof !9

25:                                               ; preds = %18
  %26 = tail call i64 @strlen(ptr noundef nonnull readonly dereferenceable(1) %0) #12
  %27 = add i64 %26, 1
  br label %28

28:                                               ; preds = %28, %25
  %storemerge.i = phi i64 [ 256, %25 ], [ %30, %28 ]
  %29 = icmp ugt i64 %27, %storemerge.i
  %30 = shl i64 %storemerge.i, 1
  br i1 %29, label %28, label %31, !llvm.loop !13

31:                                               ; preds = %28
  %32 = getelementptr inbounds nuw i8, ptr %11, i64 24
  store i64 %storemerge.i, ptr %32, align 8, !tbaa !15
  %33 = tail call noalias ptr @H5FL_blk_malloc(ptr noundef nonnull @H5_str_buf_blk_free_list, i64 noundef %storemerge.i) #11
  store ptr %33, ptr %11, align 8, !tbaa !20
  %34 = icmp eq ptr %33, null
  br i1 %34, label %41, label %35

35:                                               ; preds = %31
  %.not36.i = icmp eq i64 %26, 0
  br i1 %.not36.i, label %37, label %36

36:                                               ; preds = %35
  tail call void @llvm.memcpy.p0.p0.i64(ptr nonnull align 1 %33, ptr nonnull readonly align 1 %0, i64 %26, i1 false)
  br label %37

37:                                               ; preds = %36, %35
  %38 = getelementptr inbounds nuw i8, ptr %33, i64 %26
  %39 = getelementptr inbounds nuw i8, ptr %11, i64 8
  store ptr %38, ptr %39, align 8, !tbaa !21
  store i8 0, ptr %38, align 1, !tbaa !22
  %40 = getelementptr inbounds nuw i8, ptr %11, i64 16
  store i64 %26, ptr %40, align 8, !tbaa !23
  br label %H5RS__xstrdup.exit.thread

41:                                               ; preds = %31
  %42 = load i64, ptr @H5E_RS_g, align 8, !tbaa !11
  %43 = load i64, ptr @H5E_CANTALLOC_g, align 8, !tbaa !11
  %44 = tail call i32 (ptr, ptr, i32, i64, i64, ptr, ...) @H5E_printf_stack(ptr noundef nonnull @.str, ptr noundef nonnull @__func__.H5RS__xstrdup, i32 noundef 129, i64 noundef %42, i64 noundef %43, ptr noundef nonnull @.str.1) #11
  %45 = load i64, ptr @H5E_RS_g, align 8, !tbaa !11
  %46 = load i64, ptr @H5E_CANTCOPY_g, align 8, !tbaa !11
  %47 = tail call i32 (ptr, ptr, i32, i64, i64, ptr, ...) @H5E_printf_stack(ptr noundef nonnull @.str, ptr noundef nonnull @__func__.H5RS_create, i32 noundef 282, i64 noundef %45, i64 noundef %46, ptr noundef nonnull @.str.2) #11
  br label %49

H5RS__xstrdup.exit.thread:                        ; preds = %37, %18, %17
  %48 = getelementptr inbounds nuw i8, ptr %11, i64 36
  store i32 1, ptr %48, align 4, !tbaa !24
  br label %49

49:                                               ; preds = %13, %41, %H5RS__xstrdup.exit.thread, %7
  %.0 = phi ptr [ null, %13 ], [ null, %41 ], [ %11, %H5RS__xstrdup.exit.thread ], [ null, %7 ]
  ret ptr %.0
}